; ModuleID = '29/292.c'
source_filename = "29/292.c"
target datalayout = "e-m:e-p270:32:32-p271:32:32-p272:64:64-i64:64-f80:128-n8:16:32:64-S128"
target triple = "x86_64-pc-linux-gnu"

@.str = private unnamed_addr constant [4 x i8] c"%d\0A\00", align 1
@.str.1 = private unnamed_addr constant [7 x i8] c"%.3lf\0A\00", align 1

; Function Attrs: noinline nounwind uwtable
define dso_local i32 @main() #0 {
  %1 = alloca i32, align 4
  %2 = alloca i32, align 4
  %3 = alloca i32, align 4
  %4 = alloca i32, align 4
  %5 = alloca i32, align 4
  %6 = alloca i8*, align 8
  %7 = alloca i64, align 8
  %8 = alloca i64, align 8
  %9 = alloca double, align 8
  store i32 0, i32* %1, align 4
  %10 = call i32 (i8*, ...) @__isoc99_scanf(i8* getelementptr inbounds ([4 x i8], [4 x i8]* @.str, i64 0, i64 0), i32* %2)
  store i32 0, i32* %3, align 4
  br label %11

11:                                               ; preds = %89, %0
  %12 = load i32, i32* %3, align 4
  %13 = load i32, i32* %2, align 4
  %14 = icmp slt i32 %12, %13
  br i1 %14, label %15, label %92

15:                                               ; preds = %11
  %16 = call i32 (i8*, ...) @__isoc99_scanf(i8* getelementptr inbounds ([4 x i8], [4 x i8]* @.str, i64 0, i64 0), i32* %5)
  %17 = load i32, i32* %5, align 4
  %18 = zext i32 %17 to i64
  %19 = call i8* @llvm.stacksave()
  store i8* %19, i8** %6, align 8
  %20 = alloca double, i64 %18, align 16
  store i64 %18, i64* %7, align 8
  %21 = load i32, i32* %5, align 4
  %22 = zext i32 %21 to i64
  %23 = alloca double, i64 %22, align 16
  store i64 %22, i64* %8, align 8
  %24 = load i32, i32* %5, align 4
  %25 = icmp sge i32 %24, 2
  br i1 %25, label %26, label %82

26:                                               ; preds = %15
  %27 = getelementptr inbounds double, double* %20, i64 0
  store double 2.000000e+00, double* %27, align 16
  %28 = getelementptr inbounds double, double* %20, i64 1
  store double 3.000000e+00, double* %28, align 8
  %29 = getelementptr inbounds double, double* %23, i64 0
  store double 1.000000e+00, double* %29, align 16
  %30 = getelementptr inbounds double, double* %23, i64 1
  store double 2.000000e+00, double* %30, align 8
  store double 3.000000e+00, double* %9, align 8
  store i32 2, i32* %4, align 4
  br label %31

31:                                               ; preds = %75, %26
  %32 = load i32, i32* %4, align 4
  %33 = load i32, i32* %5, align 4
  %34 = icmp slt i32 %32, %33
  br i1 %34, label %35, label %78

35:                                               ; preds = %31
  %36 = load i32, i32* %4, align 4
  %37 = sub nsw i32 %36, 2
  %38 = sext i32 %37 to i64
  %39 = getelementptr inbounds double, double* %20, i64 %38
  %40 = load double, double* %39, align 8
  %41 = load i32, i32* %4, align 4
  %42 = sub nsw i32 %41, 1
  %43 = sext i32 %42 to i64
  %44 = getelementptr inbounds double, double* %20, i64 %43
  %45 = load double, double* %44, align 8
  %46 = fadd double %40, %45
  %47 = load i32, i32* %4, align 4
  %48 = sext i32 %47 to i64
  %49 = getelementptr inbounds double, double* %20, i64 %48
  store double %46, double* %49, align 8
  %50 = load i32, i32* %4, align 4
  %51 = sub nsw i32 %50, 1
  %52 = sext i32 %51 to i64
  %53 = getelementptr inbounds double, double* %23, i64 %52
  %54 = load double, double* %53, align 8
  %55 = load i32, i32* %4, align 4
  %56 = sub nsw i32 %55, 2
  %57 = sext i32 %56 to i64
  %58 = getelementptr inbounds double, double* %23, i64 %57
  %59 = load double, double* %58, align 8
  %60 = fadd double %54, %59
  %61 = load i32, i32* %4, align 4
  %62 = sext i32 %61 to i64
  %63 = getelementptr inbounds double, double* %23, i64 %62
  store double %60, double* %63, align 8
  %64 = load double, double* %9, align 8
  %65 = load i32, i32* %4, align 4
  %66 = sext i32 %65 to i64
  %67 = getelementptr inbounds double, double* %20, i64 %66
  %68 = load double, double* %67, align 8
  %69 = load i32, i32* %4, align 4
  %70 = sext i32 %69 to i64
  %71 = getelementptr inbounds double, double* %23, i64 %70
  %72 = load double, double* %71, align 8
  %73 = fdiv double %68, %72
  %74 = fadd double %64, %73
  store double %74, double* %9, align 8
  br label %75

75:                                               ; preds = %35
  %76 = load i32, i32* %4, align 4
  %77 = add nsw i32 %76, 1
  store i32 %77, i32* %4, align 4
  br label %31

78:                                               ; preds = %31
  %79 = load double, double* %9, align 8
  %80 = fadd double %79, 5.000000e-01
  %81 = call i32 (i8*, ...) @printf(i8* getelementptr inbounds ([7 x i8], [7 x i8]* @.str.1, i64 0, i64 0), double %80)
  br label %82

82:                                               ; preds = %78, %15
  %83 = load i32, i32* %5, align 4
  %84 = icmp eq i32 %83, 1
  br i1 %84, label %85, label %87

85:                                               ; preds = %82
  %86 = call i32 (i8*, ...) @printf(i8* getelementptr inbounds ([7 x i8], [7 x i8]* @.str.1, i64 0, i64 0), double 2.000000e+00)
  br label %87

87:                                               ; preds = %85, %82
  %88 = load i8*, i8** %6, align 8
  call void @llvm.stackrestore(i8* %88)
  br label %89

89:                                               ; preds = %87
  %90 = load i32, i32* %3, align 4
  %91 = add nsw i32 %90, 1
  store i32 %91, i32* %3, align 4
  br label %11

92:                                               ; preds = %11
  ret i32 0
}

declare dso_local i32 @__isoc99_scanf(i8*, ...) #1

; Function Attrs: nounwind
declare i8* @llvm.stacksave() #2

declare dso_local i32 @printf(i8*, ...) #1

; Function Attrs: nounwind
declare void @llvm.stackrestore(i8*) #2


!llvm.module.flags = !{!0}
!llvm.ident = !{!1}

!0 = !{i32 1, !"wchar_size", i32 4}
!1 = !{!"clang version 10.0.0-4ubuntu1 "}
